target datalayout = "e-m:e-p270:32:32-p271:32:32-p272:64:64-i64:64-i128:128-f80:128-n8:16:32:64-S128"
target triple = "x86_64-pc-linux-gnu"

%struct.CVodeMemRec = type { ptr, double, ptr, ptr, i32, i32, double, double, ptr, i32, i32, ptr, ptr, i32, [13 x ptr], ptr, ptr, ptr, ptr, ptr, ptr, ptr, ptr, ptr, i32, i32, double, i32, i32, i32, i32, i32, double, double, double, double, double, double, double, double, [14 x double], [6 x double], [13 x double], double, double, double, double, double, double, double, i32, double, i32, i64, i32, i32, i32, double, double, double, double, double, double, double, double, double, double, double, double, i64, i32, i64, i64, i64, i64, i64, i64, i64, i32, double, double, double, i64, i64, i64, i64, ptr, i32, ptr, i32, ptr, ptr, ptr, ptr, ptr, i64, double, i32, i64, double, double, double, i32, double, i32, i32, i32, i32, i32, ptr, i64, i32, [6 x [4 x double]], i32, i64, ptr, i32, ptr, ptr, double, double, double, ptr, ptr, ptr, double, double, i32, i32, i64, ptr, i32, ptr, i32, i32, [13 x double], [13 x double], [13 x ptr], i32 }
%struct._generic_N_Vector = type { ptr, ptr, ptr }
%struct._generic_N_Vector_Ops = type { ptr, ptr, ptr, ptr, ptr, ptr, ptr, ptr, ptr, ptr, ptr, ptr, ptr, ptr, ptr, ptr, ptr, ptr, ptr, ptr, ptr, ptr, ptr, ptr, ptr, ptr, ptr, ptr, ptr, ptr, ptr, ptr, ptr, ptr, ptr, ptr, ptr, ptr, ptr, ptr, ptr, ptr, ptr, ptr, ptr, ptr, ptr, ptr, ptr, ptr, ptr, ptr, ptr, ptr, ptr, ptr }

@.str = private unnamed_addr constant [116 x i8] c"generated/home/dtcxzyw/WorkSpace/Projects/compilers/llvm-opt-benchmark/bench/sundials/sundials/src/cvode/cvode_ls.c\00", align 1
@.str.1 = private unnamed_addr constant [27 x i8] c"Integrator memory is NULL.\00", align 1
@.str.4 = private unnamed_addr constant [48 x i8] c"A required vector operation is not implemented.\00", align 1
@__func__.cvLsDQJac = private unnamed_addr constant [10 x i8] c"cvLsDQJac\00", align 1
@.str.30 = private unnamed_addr constant [30 x i8] c"Linear solver memory is NULL.\00", align 1
@.str.31 = private unnamed_addr constant [39 x i8] c"unrecognized matrix type for cvLsDQJac\00", align 1

; Function Attrs: nounwind uwtable
define i32 @cvLsDQJac(double noundef %0, ptr noundef %1, ptr noundef %2, ptr noundef %3, ptr noundef %4, ptr noundef %5, ptr noundef %6, ptr noundef %7) #0 {
  %9 = alloca i32, align 4
  %10 = alloca double, align 8
  %11 = alloca ptr, align 8
  %12 = alloca ptr, align 8
  %13 = alloca ptr, align 8
  %14 = alloca ptr, align 8
  %15 = alloca ptr, align 8
  %16 = alloca ptr, align 8
  %17 = alloca ptr, align 8
  %18 = alloca ptr, align 8
  %19 = alloca i32, align 4
  %20 = alloca i32, align 4
  store double %0, ptr %10, align 8, !tbaa !91
  store ptr %1, ptr %11, align 8, !tbaa !85
  store ptr %2, ptr %12, align 8, !tbaa !85
  store ptr %3, ptr %13, align 8, !tbaa !9
  store ptr %4, ptr %14, align 8, !tbaa !3
  store ptr %5, ptr %15, align 8, !tbaa !85
  store ptr %6, ptr %16, align 8, !tbaa !85
  store ptr %7, ptr %17, align 8, !tbaa !85
  call void @llvm.lifetime.start.p0(i64 8, ptr %18) #7
  call void @llvm.lifetime.start.p0(i64 4, ptr %19) #7
  %21 = load ptr, ptr %14, align 8, !tbaa !3
  %22 = icmp eq ptr %21, null
  br i1 %22, label %23, label %24

23:                                               ; preds = %8
  call void (ptr, i32, i32, ptr, ptr, ptr, ...) @cvProcessError(ptr noundef null, i32 noundef -1, i32 noundef 989, ptr noundef @__func__.cvLsDQJac, ptr noundef @.str, ptr noundef @.str.1)
  store i32 -1, ptr %9, align 4
  store i32 1, ptr %20, align 4
  br label %125

24:                                               ; preds = %8
  %25 = load ptr, ptr %14, align 8, !tbaa !3
  store ptr %25, ptr %18, align 8, !tbaa !11
  %26 = load ptr, ptr %13, align 8, !tbaa !9
  %27 = icmp eq ptr %26, null
  br i1 %27, label %28, label %30

28:                                               ; preds = %24
  %29 = load ptr, ptr %18, align 8, !tbaa !11
  call void (ptr, i32, i32, ptr, ptr, ptr, ...) @cvProcessError(ptr noundef %29, i32 noundef -2, i32 noundef 998, ptr noundef @__func__.cvLsDQJac, ptr noundef @.str, ptr noundef @.str.30)
  store i32 -2, ptr %9, align 4
  store i32 1, ptr %20, align 4
  br label %125

30:                                               ; preds = %24
  %31 = load ptr, ptr %18, align 8, !tbaa !11
  %32 = getelementptr inbounds nuw %struct.CVodeMemRec, ptr %31, i32 0, i32 18
  %33 = load ptr, ptr %32, align 8, !tbaa !22
  %34 = getelementptr inbounds nuw %struct._generic_N_Vector, ptr %33, i32 0, i32 1
  %35 = load ptr, ptr %34, align 8, !tbaa !31
  %36 = getelementptr inbounds nuw %struct._generic_N_Vector_Ops, ptr %35, i32 0, i32 2
  %37 = load ptr, ptr %36, align 8, !tbaa !108
  %38 = icmp eq ptr %37, null
  br i1 %38, label %93, label %39

39:                                               ; preds = %30
  %40 = load ptr, ptr %18, align 8, !tbaa !11
  %41 = getelementptr inbounds nuw %struct.CVodeMemRec, ptr %40, i32 0, i32 18
  %42 = load ptr, ptr %41, align 8, !tbaa !22
  %43 = getelementptr inbounds nuw %struct._generic_N_Vector, ptr %42, i32 0, i32 1
  %44 = load ptr, ptr %43, align 8, !tbaa !31
  %45 = getelementptr inbounds nuw %struct._generic_N_Vector_Ops, ptr %44, i32 0, i32 21
  %46 = load ptr, ptr %45, align 8, !tbaa !36
  %47 = icmp eq ptr %46, null
  br i1 %47, label %93, label %48

48:                                               ; preds = %39
  %49 = load ptr, ptr %18, align 8, !tbaa !11
  %50 = getelementptr inbounds nuw %struct.CVodeMemRec, ptr %49, i32 0, i32 18
  %51 = load ptr, ptr %50, align 8, !tbaa !22
  %52 = getelementptr inbounds nuw %struct._generic_N_Vector, ptr %51, i32 0, i32 1
  %53 = load ptr, ptr %52, align 8, !tbaa !31
  %54 = getelementptr inbounds nuw %struct._generic_N_Vector_Ops, ptr %53, i32 0, i32 11
  %55 = load ptr, ptr %54, align 8, !tbaa !109
  %56 = icmp eq ptr %55, null
  br i1 %56, label %93, label %57

57:                                               ; preds = %48
  %58 = load ptr, ptr %18, align 8, !tbaa !11
  %59 = getelementptr inbounds nuw %struct.CVodeMemRec, ptr %58, i32 0, i32 18
  %60 = load ptr, ptr %59, align 8, !tbaa !22
  %61 = getelementptr inbounds nuw %struct._generic_N_Vector, ptr %60, i32 0, i32 1
  %62 = load ptr, ptr %61, align 8, !tbaa !31
  %63 = getelementptr inbounds nuw %struct._generic_N_Vector_Ops, ptr %62, i32 0, i32 3
  %64 = load ptr, ptr %63, align 8, !tbaa !110
  %65 = icmp eq ptr %64, null
  br i1 %65, label %93, label %66

66:                                               ; preds = %57
  %67 = load ptr, ptr %18, align 8, !tbaa !11
  %68 = getelementptr inbounds nuw %struct.CVodeMemRec, ptr %67, i32 0, i32 18
  %69 = load ptr, ptr %68, align 8, !tbaa !22
  %70 = getelementptr inbounds nuw %struct._generic_N_Vector, ptr %69, i32 0, i32 1
  %71 = load ptr, ptr %70, align 8, !tbaa !31
  %72 = getelementptr inbounds nuw %struct._generic_N_Vector_Ops, ptr %71, i32 0, i32 15
  %73 = load ptr, ptr %72, align 8, !tbaa !111
  %74 = icmp eq ptr %73, null
  br i1 %74, label %93, label %75

75:                                               ; preds = %66
  %76 = load ptr, ptr %18, align 8, !tbaa !11
  %77 = getelementptr inbounds nuw %struct.CVodeMemRec, ptr %76, i32 0, i32 18
  %78 = load ptr, ptr %77, align 8, !tbaa !22
  %79 = getelementptr inbounds nuw %struct._generic_N_Vector, ptr %78, i32 0, i32 1
  %80 = load ptr, ptr %79, align 8, !tbaa !31
  %81 = getelementptr inbounds nuw %struct._generic_N_Vector_Ops, ptr %80, i32 0, i32 5
  %82 = load ptr, ptr %81, align 8, !tbaa !112
  %83 = icmp eq ptr %82, null
  br i1 %83, label %93, label %84

84:                                               ; preds = %75
  %85 = load ptr, ptr %18, align 8, !tbaa !11
  %86 = getelementptr inbounds nuw %struct.CVodeMemRec, ptr %85, i32 0, i32 18
  %87 = load ptr, ptr %86, align 8, !tbaa !22
  %88 = getelementptr inbounds nuw %struct._generic_N_Vector, ptr %87, i32 0, i32 1
  %89 = load ptr, ptr %88, align 8, !tbaa !31
  %90 = getelementptr inbounds nuw %struct._generic_N_Vector_Ops, ptr %89, i32 0, i32 7
  %91 = load ptr, ptr %90, align 8, !tbaa !113
  %92 = icmp eq ptr %91, null
  br i1 %92, label %93, label %95

93:                                               ; preds = %84, %75, %66, %57, %48, %39, %30
  %94 = load ptr, ptr %18, align 8, !tbaa !11
  call void (ptr, i32, i32, ptr, ptr, ptr, ...) @cvProcessError(ptr noundef %94, i32 noundef -3, i32 noundef 1012, ptr noundef @__func__.cvLsDQJac, ptr noundef @.str, ptr noundef @.str.4)
  store i32 -3, ptr %9, align 4
  store i32 1, ptr %20, align 4
  br label %125

95:                                               ; preds = %84
  %96 = load ptr, ptr %13, align 8, !tbaa !9
  %97 = call i32 @SUNMatGetID(ptr noundef %96)
  %98 = icmp eq i32 %97, 0
  br i1 %98, label %99, label %107

99:                                               ; preds = %95
  %100 = load double, ptr %10, align 8, !tbaa !91
  %101 = load ptr, ptr %11, align 8, !tbaa !85
  %102 = load ptr, ptr %12, align 8, !tbaa !85
  %103 = load ptr, ptr %13, align 8, !tbaa !9
  %104 = load ptr, ptr %18, align 8, !tbaa !11
  %105 = load ptr, ptr %15, align 8, !tbaa !85
  %106 = call i32 @cvLsDenseDQJac(double noundef %100, ptr noundef %101, ptr noundef %102, ptr noundef %103, ptr noundef %104, ptr noundef %105)
  store i32 %106, ptr %19, align 4, !tbaa !20
  br label %123

107:                                              ; preds = %95
  %108 = load ptr, ptr %13, align 8, !tbaa !9
  %109 = call i32 @SUNMatGetID(ptr noundef %108)
  %110 = icmp eq i32 %109, 3
  br i1 %110, label %111, label %120

111:                                              ; preds = %107
  %112 = load double, ptr %10, align 8, !tbaa !91
  %113 = load ptr, ptr %11, align 8, !tbaa !85
  %114 = load ptr, ptr %12, align 8, !tbaa !85
  %115 = load ptr, ptr %13, align 8, !tbaa !9
  %116 = load ptr, ptr %18, align 8, !tbaa !11
  %117 = load ptr, ptr %15, align 8, !tbaa !85
  %118 = load ptr, ptr %16, align 8, !tbaa !85
  %119 = call i32 @cvLsBandDQJac(double noundef %112, ptr noundef %113, ptr noundef %114, ptr noundef %115, ptr noundef %116, ptr noundef %117, ptr noundef %118)
  store i32 %119, ptr %19, align 4, !tbaa !20
  br label %122

120:                                              ; preds = %107
  %121 = load ptr, ptr %18, align 8, !tbaa !11
  call void (ptr, i32, i32, ptr, ptr, ptr, ...) @cvProcessError(ptr noundef %121, i32 noundef -3, i32 noundef 1028, ptr noundef @__func__.cvLsDQJac, ptr noundef @.str, ptr noundef @.str.31)
  store i32 -3, ptr %19, align 4, !tbaa !20
  br label %122

122:                                              ; preds = %120, %111
  br label %123

123:                                              ; preds = %122, %99
  %124 = load i32, ptr %19, align 4, !tbaa !20
  store i32 %124, ptr %9, align 4
  store i32 1, ptr %20, align 4
  br label %125

125:                                              ; preds = %123, %93, %28, %23
  call void @llvm.lifetime.end.p0(i64 4, ptr %19) #7
  call void @llvm.lifetime.end.p0(i64 8, ptr %18) #7
  %126 = load i32, ptr %9, align 4
  ret i32 %126
}