; Function Attrs: nounwind uwtable
define i32 @cvLsDQJac(double noundef %0, ptr noundef %1, ptr noundef %2, ptr noundef %3, ptr noundef %4, ptr noundef %5, ptr noundef %6, ptr readnone captures(none) %7) #0 {
  %9 = icmp eq ptr %4, null
  br i1 %9, label %10, label %11

10:                                               ; preds = %8
  tail call void (ptr, i32, i32, ptr, ptr, ptr, ...) @cvProcessError(ptr noundef null, i32 noundef -1, i32 noundef 989, ptr noundef nonnull @__func__.cvLsDQJac, ptr noundef nonnull @.str, ptr noundef nonnull @.str.1) #13
  br label %58

11:                                               ; preds = %8
  %12 = icmp eq ptr %3, null
  br i1 %12, label %13, label %14

13:                                               ; preds = %11
  tail call void (ptr, i32, i32, ptr, ptr, ptr, ...) @cvProcessError(ptr noundef nonnull %4, i32 noundef -2, i32 noundef 998, ptr noundef nonnull @__func__.cvLsDQJac, ptr noundef nonnull @.str, ptr noundef nonnull @.str.30) #13
  br label %58

14:                                               ; preds = %11
  %15 = getelementptr inbounds nuw i8, ptr %4, i64 224
  %16 = load ptr, ptr %15, align 8, !tbaa !13
  %17 = getelementptr inbounds nuw i8, ptr %16, i64 8
  %18 = load ptr, ptr %17, align 8, !tbaa !23
  %19 = getelementptr inbounds nuw i8, ptr %18, i64 16
  %20 = load ptr, ptr %19, align 8, !tbaa !96
  %21 = icmp eq ptr %20, null
  br i1 %21, label %46, label %22

22:                                               ; preds = %14
  %23 = getelementptr inbounds nuw i8, ptr %18, i64 168
  %24 = load ptr, ptr %23, align 8, !tbaa !28
  %25 = icmp eq ptr %24, null
  br i1 %25, label %46, label %26

26:                                               ; preds = %22
  %27 = getelementptr inbounds nuw i8, ptr %18, i64 88
  %28 = load ptr, ptr %27, align 8, !tbaa !97
  %29 = icmp eq ptr %28, null
  br i1 %29, label %46, label %30

30:                                               ; preds = %26
  %31 = getelementptr inbounds nuw i8, ptr %18, i64 24
  %32 = load ptr, ptr %31, align 8, !tbaa !98
  %33 = icmp eq ptr %32, null
  br i1 %33, label %46, label %34

34:                                               ; preds = %30
  %35 = getelementptr inbounds nuw i8, ptr %18, i64 120
  %36 = load ptr, ptr %35, align 8, !tbaa !99
  %37 = icmp eq ptr %36, null
  br i1 %37, label %46, label %38

38:                                               ; preds = %34
  %39 = getelementptr inbounds nuw i8, ptr %18, i64 40
  %40 = load ptr, ptr %39, align 8, !tbaa !100
  %41 = icmp eq ptr %40, null
  br i1 %41, label %46, label %42

42:                                               ; preds = %38
  %43 = getelementptr inbounds nuw i8, ptr %18, i64 56
  %44 = load ptr, ptr %43, align 8, !tbaa !101
  %45 = icmp eq ptr %44, null
  br i1 %45, label %46, label %47

46:                                               ; preds = %42, %38, %34, %30, %26, %22, %14
  tail call void (ptr, i32, i32, ptr, ptr, ptr, ...) @cvProcessError(ptr noundef nonnull %4, i32 noundef -3, i32 noundef 1012, ptr noundef nonnull @__func__.cvLsDQJac, ptr noundef nonnull @.str, ptr noundef nonnull @.str.4) #13
  br label %58

47:                                               ; preds = %42
  %48 = tail call i32 @SUNMatGetID(ptr noundef nonnull %3) #13
  %49 = icmp eq i32 %48, 0
  br i1 %49, label %50, label %52

50:                                               ; preds = %47
  %51 = tail call i32 @cvLsDenseDQJac(double noundef %0, ptr noundef %1, ptr noundef %2, ptr noundef nonnull %3, ptr noundef nonnull %4, ptr noundef %5)
  br label %58

52:                                               ; preds = %47
  %53 = tail call i32 @SUNMatGetID(ptr noundef nonnull %3) #13
  %54 = icmp eq i32 %53, 3
  br i1 %54, label %55, label %57

55:                                               ; preds = %52
  %56 = tail call i32 @cvLsBandDQJac(double noundef %0, ptr noundef %1, ptr noundef %2, ptr noundef nonnull %3, ptr noundef nonnull %4, ptr noundef %5, ptr noundef %6)
  br label %58

57:                                               ; preds = %52
  tail call void (ptr, i32, i32, ptr, ptr, ptr, ...) @cvProcessError(ptr noundef nonnull %4, i32 noundef -3, i32 noundef 1028, ptr noundef nonnull @__func__.cvLsDQJac, ptr noundef nonnull @.str, ptr noundef nonnull @.str.31) #13
  br label %58

58:                                               ; preds = %50, %57, %55, %46, %13, %10
  %.029 = phi i32 [ -1, %10 ], [ -2, %13 ], [ -3, %46 ], [ %51, %50 ], [ %56, %55 ], [ -3, %57 ]
  ret i32 %.029
}